target datalayout = "e-m:e-p270:32:32-p271:32:32-p272:64:64-i64:64-i128:128-f80:128-n8:16:32:64-S128"
target triple = "x86_64-pc-linux-gnu"

%struct.Abc_Frame_t_ = type { ptr, ptr, ptr, ptr, ptr, ptr, ptr, ptr, ptr, ptr, i32, i32, i32, i32, i32, ptr, float, float, i32, i32, ptr, ptr, ptr, double, double, ptr, ptr, ptr, ptr, ptr, ptr, ptr, ptr, ptr, ptr, ptr, ptr, float, ptr, i32, ptr, ptr, ptr, ptr, ptr, i32, i32, i32, i32, i32, i32, ptr, ptr, ptr, ptr, ptr, ptr, i32, i32, ptr, ptr, ptr, ptr, ptr, ptr, ptr, ptr, ptr, ptr, ptr, ptr, ptr, ptr, ptr, ptr, ptr, ptr, ptr, ptr, ptr, ptr, ptr, ptr, ptr, ptr, ptr, ptr, ptr, ptr }

@globalUtilOptind = external global i32, align 4
@.str.25 = private unnamed_addr constant [4 x i8] c"yes\00", align 1
@.str.26 = private unnamed_addr constant [3 x i8] c"no\00", align 1
@.str.34 = private unnamed_addr constant [62 x i8] c"\09-v     : toggle printing verbose information [default = %s]\0A\00", align 1
@.str.35 = private unnamed_addr constant [35 x i8] c"\09-h     : print the command usage\0A\00", align 1
@.str.39 = private unnamed_addr constant [28 x i8] c"The design is not entered.\0A\00", align 1
@.str.44 = private unnamed_addr constant [3 x i8] c"vh\00", align 1
@.str.45 = private unnamed_addr constant [85 x i8] c"Abc_CommandHierarchy(): This command expects one AIG file name on the command line.\0A\00", align 1
@.str.46 = private unnamed_addr constant [40 x i8] c"usage: %%hierarchy [-vh] <module_name>\0A\00", align 1
@.str.47 = private unnamed_addr constant [80 x i8] c"\09         marks the module whose instances may later be treated as black boxes\0A\00", align 1

; Function Attrs: inlinehint nounwind uwtable
define internal ptr @Wln_AbcGetRtl(ptr noundef %0) #2 {
  %2 = alloca ptr, align 8
  store ptr %0, ptr %2, align 8, !tbaa !3
  %3 = load ptr, ptr %2, align 8, !tbaa !3
  %4 = getelementptr inbounds nuw %struct.Abc_Frame_t_, ptr %3, i32 0, i32 73
  %5 = load ptr, ptr %4, align 8, !tbaa !26
  ret ptr %5
}

; Function Attrs: nounwind uwtable
define internal i32 @Abc_CommandHierarchy(ptr noundef %0, i32 noundef %1, ptr noundef %2) #0 {
  %4 = alloca i32, align 4
  %5 = alloca ptr, align 8
  %6 = alloca i32, align 4
  %7 = alloca ptr, align 8
  %8 = alloca ptr, align 8
  %9 = alloca ptr, align 8
  %10 = alloca i32, align 4
  %11 = alloca i32, align 4
  %12 = alloca i32, align 4
  %13 = alloca i32, align 4
  store ptr %0, ptr %5, align 8, !tbaa !3
  store i32 %1, ptr %6, align 4, !tbaa !8
  store ptr %2, ptr %7, align 8, !tbaa !10
  call void @llvm.lifetime.start.p0(i64 8, ptr %8) #7
  %14 = load ptr, ptr %5, align 8, !tbaa !3
  %15 = call ptr @Wln_AbcGetRtl(ptr noundef %14)
  store ptr %15, ptr %8, align 8, !tbaa !20
  call void @llvm.lifetime.start.p0(i64 8, ptr %9) #7
  call void @llvm.lifetime.start.p0(i64 4, ptr %10) #7
  call void @llvm.lifetime.start.p0(i64 4, ptr %11) #7
  call void @llvm.lifetime.start.p0(i64 4, ptr %12) #7
  store i32 0, ptr %12, align 4, !tbaa !8
  call void (...) @Extra_UtilGetoptReset()
  br label %16

16:                                               ; preds = %28, %3
  %17 = load i32, ptr %6, align 4, !tbaa !8
  %18 = load ptr, ptr %7, align 8, !tbaa !10
  %19 = call i32 @Extra_UtilGetopt(i32 noundef %17, ptr noundef %18, ptr noundef @.str.44)
  store i32 %19, ptr %11, align 4, !tbaa !8
  %20 = icmp ne i32 %19, -1
  br i1 %20, label %21, label %29

21:                                               ; preds = %16
  %22 = load i32, ptr %11, align 4, !tbaa !8
  switch i32 %22, label %27 [
    i32 118, label %23
    i32 104, label %26
  ]

23:                                               ; preds = %21
  %24 = load i32, ptr %12, align 4, !tbaa !8
  %25 = xor i32 %24, 1
  store i32 %25, ptr %12, align 4, !tbaa !8
  br label %28

26:                                               ; preds = %21
  br label %50

27:                                               ; preds = %21
  br label %50

28:                                               ; preds = %23
  br label %16, !llvm.loop !23

29:                                               ; preds = %16
  %30 = load ptr, ptr %8, align 8, !tbaa !20
  %31 = icmp eq ptr %30, null
  br i1 %31, label %32, label %34

32:                                               ; preds = %29
  %33 = call i32 (ptr, ...) @printf(ptr noundef @.str.39)
  store i32 1, ptr %4, align 4
  store i32 1, ptr %13, align 4
  br label %54

34:                                               ; preds = %29
  %35 = load ptr, ptr %7, align 8, !tbaa !10
  %36 = load i32, ptr @globalUtilOptind, align 4, !tbaa !8
  %37 = sext i32 %36 to i64
  %38 = getelementptr inbounds ptr, ptr %35, i64 %37
  store ptr %38, ptr %9, align 8, !tbaa !10
  %39 = load i32, ptr %6, align 4, !tbaa !8
  %40 = load i32, ptr @globalUtilOptind, align 4, !tbaa !8
  %41 = sub nsw i32 %39, %40
  store i32 %41, ptr %10, align 4, !tbaa !8
  %42 = load i32, ptr %10, align 4, !tbaa !8
  %43 = icmp slt i32 %42, 0
  br i1 %43, label %44, label %45

44:                                               ; preds = %34
  call void (i32, ptr, ...) @Abc_Print(i32 noundef -1, ptr noundef @.str.45)
  store i32 1, ptr %4, align 4
  store i32 1, ptr %13, align 4
  br label %54

45:                                               ; preds = %34
  %46 = load ptr, ptr %8, align 8, !tbaa !20
  %47 = load ptr, ptr %9, align 8, !tbaa !10
  %48 = load i32, ptr %10, align 4, !tbaa !8
  %49 = load i32, ptr %12, align 4, !tbaa !8
  call void @Wln_LibMarkHierarchy(ptr noundef %46, ptr noundef %47, i32 noundef %48, i32 noundef %49)
  store i32 0, ptr %4, align 4
  store i32 1, ptr %13, align 4
  br label %54

50:                                               ; preds = %27, %26
  call void (i32, ptr, ...) @Abc_Print(i32 noundef -2, ptr noundef @.str.46)
  call void (i32, ptr, ...) @Abc_Print(i32 noundef -2, ptr noundef @.str.47)
  %51 = load i32, ptr %12, align 4, !tbaa !8
  %52 = icmp ne i32 %51, 0
  %53 = select i1 %52, ptr @.str.25, ptr @.str.26
  call void (i32, ptr, ...) @Abc_Print(i32 noundef -2, ptr noundef @.str.34, ptr noundef %53)
  call void (i32, ptr, ...) @Abc_Print(i32 noundef -2, ptr noundef @.str.35)
  store i32 1, ptr %4, align 4
  store i32 1, ptr %13, align 4
  br label %54

54:                                               ; preds = %50, %45, %44, %32
  call void @llvm.lifetime.end.p0(i64 4, ptr %12) #7
  call void @llvm.lifetime.end.p0(i64 4, ptr %11) #7
  call void @llvm.lifetime.end.p0(i64 4, ptr %10) #7
  call void @llvm.lifetime.end.p0(i64 8, ptr %9) #7
  call void @llvm.lifetime.end.p0(i64 8, ptr %8) #7
  %55 = load i32, ptr %4, align 4
  ret i32 %55
}