; Function Attrs: nounwind uwtable
define internal range(i32 0, 2) i32 @Abc_CommandHierarchy(ptr noundef readonly captures(none) %0, i32 noundef %1, ptr noundef %2) #0 {
  %4 = getelementptr i8, ptr %0, i64 520
  %.val = load ptr, ptr %4, align 8, !tbaa !12
  tail call void (...) @Extra_UtilGetoptReset() #10
  br label %5

5:                                                ; preds = %7, %3
  %.0 = phi i32 [ 0, %3 ], [ %8, %7 ]
  %6 = tail call i32 @Extra_UtilGetopt(i32 noundef %1, ptr noundef %2, ptr noundef nonnull @.str.44) #10
  switch i32 %6, label %20 [
    i32 -1, label %9
    i32 118, label %7
  ]

7:                                                ; preds = %5
  %8 = xor i32 %.0, 1
  br label %5, !llvm.loop !28

9:                                                ; preds = %5
  %10 = icmp eq ptr %.val, null
  br i1 %10, label %11, label %12

11:                                               ; preds = %9
  %puts = tail call i32 @puts(ptr nonnull dereferenceable(1) @str.6)
  br label %22

12:                                               ; preds = %9
  %13 = load i32, ptr @globalUtilOptind, align 4, !tbaa !3
  %14 = sub nsw i32 %1, %13
  %15 = icmp slt i32 %14, 0
  br i1 %15, label %16, label %17

16:                                               ; preds = %12
  tail call void (i32, ptr, ...) @Abc_Print(i32 noundef -1, ptr noundef nonnull @.str.45)
  br label %22

17:                                               ; preds = %12
  %18 = sext i32 %13 to i64
  %19 = getelementptr inbounds ptr, ptr %2, i64 %18
  tail call void @Wln_LibMarkHierarchy(ptr noundef nonnull %.val, ptr noundef %19, i32 noundef %14, i32 noundef %.0) #10
  br label %22

20:                                               ; preds = %5
  tail call void (i32, ptr, ...) @Abc_Print(i32 noundef -2, ptr noundef nonnull @.str.46)
  tail call void (i32, ptr, ...) @Abc_Print(i32 noundef -2, ptr noundef nonnull @.str.47)
  %.not18 = icmp eq i32 %.0, 0
  %21 = select i1 %.not18, ptr @.str.26, ptr @.str.25
  tail call void (i32, ptr, ...) @Abc_Print(i32 noundef -2, ptr noundef nonnull @.str.34, ptr noundef nonnull %21)
  tail call void (i32, ptr, ...) @Abc_Print(i32 noundef -2, ptr noundef nonnull @.str.35)
  br label %22

22:                                               ; preds = %20, %17, %16, %11
  %.014 = phi i32 [ 1, %20 ], [ 1, %11 ], [ 1, %16 ], [ 0, %17 ]
  ret i32 %.014
}